Certificate:
    Data:
        Version: 3 (0x2)
        Serial Number:
            4d:02:67:43:69:a9:84:50:52:a3:72:27:8d:e2:57:05
        Signature Algorithm: sha256WithRSAEncryption
        Issuer: CN=ca.azienda.net
        Validity
            Not Before: Aug 16 13:55:09 2023 GMT
            Not After : Jul 31 13:55:09 2026 GMT
        Subject: CN=www.azienda.net
        Subject Public Key Info:
            Public Key Algorithm: rsaEncryption
                RSA Public-Key: (2048 bit)
                Modulus:
                    00:d9:27:df:04:a1:68:77:9a:3f:7e:85:9c:02:b2:
                    50:a1:36:0b:97:56:14:18:09:65:1c:7a:2d:8f:07:
                    fd:5e:f9:b2:7d:fc:b7:f4:b3:0b:ab:20:86:d7:7b:
                    1e:a7:8a:50:94:36:d2:91:24:a1:16:83:46:52:8b:
                    14:2d:32:2d:c2:7d:47:69:1a:05:0d:59:8e:f6:4b:
                    44:77:8a:48:7a:a3:e4:7f:74:63:b6:d9:31:f8:98:
                    3a:97:3e:a2:e2:4c:3c:43:b7:b9:7e:bc:46:d1:22:
                    1e:c9:d3:06:22:0c:5e:d5:15:b1:d9:31:1f:fe:15:
                    b1:70:1e:5f:bb:22:3d:8c:36:cc:fe:81:35:58:41:
                    03:06:59:e3:cb:d2:10:d0:44:01:d1:9b:50:c0:c4:
                    74:14:36:e7:84:3e:3e:56:2e:8f:e7:ae:2b:71:78:
                    a1:42:00:53:f6:51:53:b0:86:98:53:98:4d:53:f6:
                    43:e7:5e:25:97:d2:9f:d1:34:47:a3:83:28:68:81:
                    2f:32:27:5a:1d:5b:c6:a7:63:6c:a0:4e:64:61:c5:
                    9a:77:e7:83:48:b3:8b:4f:5d:bd:26:21:0a:00:9f:
                    d8:c8:f9:cd:e8:1b:0a:d3:ab:d5:79:12:81:7d:6f:
                    5e:68:d3:5a:21:d7:ec:e6:75:17:e1:47:7d:07:ca:
                    7c:6b
                Exponent: 65537 (0x10001)
        X509v3 extensions:
            X509v3 Basic Constraints: 
                CA:FALSE
            X509v3 Subject Key Identifier: 
                72:D2:B0:7F:4F:3D:A1:C1:91:74:ED:F3:A3:69:FF:64:25:C7:AB:37
            X509v3 Authority Key Identifier: 
                keyid:B6:8F:FB:F0:B1:EF:99:E6:E2:EA:7D:16:6D:32:F3:9D:50:6B:12:16
                DirName:/CN=ca.azienda.net
                serial:6A:C3:42:DF:45:D4:A8:F3:87:3C:8F:6F:4C:EE:BC:8C:84:83:83:26

            X509v3 Extended Key Usage: 
                TLS Web Server Authentication
            X509v3 Key Usage: 
                Digital Signature, Key Encipherment
            X509v3 Subject Alternative Name: 
                DNS:www.azienda.net
    Signature Algorithm: sha256WithRSAEncryption
         17:7a:25:94:1f:98:06:96:a9:08:29:3f:1c:c5:4f:f8:dd:85:
         ea:d8:b8:03:9d:53:4a:8c:36:a9:ba:e9:bb:fe:49:db:5a:49:
         39:37:3d:f3:2c:26:bd:1f:dd:45:a9:a0:9c:40:be:8e:d1:05:
         45:77:6e:5a:dc:e2:01:d8:17:c6:ad:62:8a:e2:2a:6e:39:bd:
         2b:08:a9:79:e0:6e:fb:13:8c:07:ce:b9:13:0f:68:0c:0b:4b:
         58:40:16:7f:5a:1c:59:2b:cf:b2:6f:3b:8b:e2:7b:cc:a0:e9:
         a0:43:58:ea:e8:1d:f9:53:f7:f3:20:7b:42:07:5b:cf:44:61:
         64:2a:88:46:16:56:0f:b1:58:97:1e:d0:82:1b:1a:c0:8e:a1:
         cf:08:7c:f7:42:68:27:4f:09:48:54:c5:de:b5:ee:1e:b7:59:
         66:2c:46:71:25:65:e8:21:d4:51:dd:2b:19:f4:5d:ab:08:85:
         63:c2:36:3f:b5:7a:e0:92:ea:92:99:de:eb:9f:cd:e8:9f:3d:
         5e:3b:fd:b0:e4:52:75:4f:3a:3b:c4:74:f8:d5:60:76:fe:79:
         dd:a3:91:3c:74:ad:ee:00:ed:61:ca:6e:76:46:24:05:15:61:
         02:e3:93:d5:28:4e:b0:d8:58:76:bd:8c:e1:6d:d2:1d:b4:59:
         b9:ba:58:de
-----BEGIN CERTIFICATE-----
MIIDfzCCAmegAwIBAgIQTQJnQ2mphFBSo3InjeJXBTANBgkqhkiG9w0BAQsFADAZ
MRcwFQYDVQQDDA5jYS5hemllbmRhLm5ldDAeFw0yMzA4MTYxMzU1MDlaFw0yNjA3
MzExMzU1MDlaMBoxGDAWBgNVBAMMD3d3dy5hemllbmRhLm5ldDCCASIwDQYJKoZI
hvcNAQEBBQADggEPADCCAQoCggEBANkn3wShaHeaP36FnAKyUKE2C5dWFBgJZRx6
LY8H/V75sn38t/SzC6sghtd7HqeKUJQ20pEkoRaDRlKLFC0yLcJ9R2kaBQ1ZjvZL
RHeKSHqj5H90Y7bZMfiYOpc+ouJMPEO3uX68RtEiHsnTBiIMXtUVsdkxH/4VsXAe
X7siPYw2zP6BNVhBAwZZ48vSENBEAdGbUMDEdBQ254Q+PlYuj+euK3F4oUIAU/ZR
U7CGmFOYTVP2Q+deJZfSn9E0R6ODKGiBLzInWh1bxqdjbKBOZGHFmnfng0izi09d
vSYhCgCf2Mj5zegbCtOr1XkSgX1vXmjTWiHX7OZ1F+FHfQfKfGsCAwEAAaOBwTCB
vjAJBgNVHRMEAjAAMB0GA1UdDgQWBBRy0rB/Tz2hwZF07fOjaf9kJcerNzBUBgNV
HSMETTBLgBS2j/vwse+Z5uLqfRZtMvOdUGsSFqEdpBswGTEXMBUGA1UEAwwOY2Eu
YXppZW5kYS5uZXSCFGrDQt9F1KjzhzyPb0zuvIyEg4MmMBMGA1UdJQQMMAoGCCsG
AQUFBwMBMAsGA1UdDwQEAwIFoDAaBgNVHREEEzARgg93d3cuYXppZW5kYS5uZXQw
DQYJKoZIhvcNAQELBQADggEBABd6JZQfmAaWqQgpPxzFT/jdherYuAOdU0qMNqm6
6bv+SdtaSTk3PfMsJr0f3UWpoJxAvo7RBUV3blrc4gHYF8atYoriKm45vSsIqXng
bvsTjAfOuRMPaAwLS1hAFn9aHFkrz7JvO4vie8yg6aBDWOroHflT9/Mge0IHW89E
YWQqiEYWVg+xWJce0IIbGsCOoc8IfPdCaCdPCUhUxd617h63WWYsRnElZegh1FHd
Kxn0XasIhWPCNj+1euCS6pKZ3uufzeifPV47/bDkUnVPOjvEdPjVYHb+ed2jkTx0
re4A7WHKbnZGJAUVYQLjk9UoTrDYWHa9jOFt0h20Wbm6WN4=
-----END CERTIFICATE-----
