Certificate:
    Data:
        Version: 3 (0x2)
        Serial Number:
            2f:ca:bc:f5:e4:66:2a:5f:c7:59:03:e4:68:ff:40:55
        Signature Algorithm: sha256WithRSAEncryption
        Issuer: CN=ca.azienda.net
        Validity
            Not Before: Aug 16 15:06:11 2023 GMT
            Not After : Jul 31 15:06:11 2026 GMT
        Subject: CN=pc5
        Subject Public Key Info:
            Public Key Algorithm: rsaEncryption
                RSA Public-Key: (2048 bit)
                Modulus:
                    00:cf:de:c8:68:f9:cc:84:53:d0:67:73:59:3a:21:
                    ad:36:0a:69:bb:8e:41:9e:9a:2d:3b:53:b6:4c:b4:
                    7d:da:fa:d2:8f:66:c0:92:1b:23:a3:09:c6:fa:5d:
                    ef:6c:92:db:d4:fe:a0:2f:1e:db:05:b3:ea:1f:09:
                    43:0e:f8:1c:da:5b:98:ed:ad:83:c1:1a:53:8f:59:
                    92:86:3f:54:14:29:6d:d7:0c:b9:2a:c0:1f:dc:61:
                    9e:fd:05:1d:d4:83:22:04:cc:ff:ea:45:64:4a:06:
                    ac:3a:b2:76:ba:16:6e:bf:77:db:c1:ef:82:aa:bb:
                    4f:44:74:17:d3:f1:05:e9:ce:80:45:58:f0:9b:12:
                    89:5d:50:8a:10:8d:75:91:61:81:c6:ee:db:40:ac:
                    e8:0c:bf:24:84:e8:f8:52:6a:0c:5b:73:52:fc:9f:
                    5f:4d:61:cd:3e:3f:b0:b2:11:3c:57:ae:2b:2a:c0:
                    0b:45:b4:8a:2c:58:bf:b7:21:e7:27:bf:fa:2a:f9:
                    26:81:c5:c2:ff:0a:76:1b:1e:fc:aa:29:90:45:69:
                    19:5d:ff:6a:14:f7:70:20:8b:57:39:b1:1d:a2:9a:
                    44:76:67:05:2b:ee:ed:f1:ac:92:84:d5:d2:30:12:
                    95:df:c2:45:3f:38:9d:91:5b:d4:09:61:e3:f5:21:
                    2a:bd
                Exponent: 65537 (0x10001)
        X509v3 extensions:
            X509v3 Basic Constraints: 
                CA:FALSE
            X509v3 Subject Key Identifier: 
                61:91:33:9F:51:D2:CA:32:66:0A:17:3C:6C:F9:EF:38:4E:9E:A9:EC
            X509v3 Authority Key Identifier: 
                keyid:B6:8F:FB:F0:B1:EF:99:E6:E2:EA:7D:16:6D:32:F3:9D:50:6B:12:16
                DirName:/CN=ca.azienda.net
                serial:6A:C3:42:DF:45:D4:A8:F3:87:3C:8F:6F:4C:EE:BC:8C:84:83:83:26

            X509v3 Extended Key Usage: 
                TLS Web Client Authentication
            X509v3 Key Usage: 
                Digital Signature
    Signature Algorithm: sha256WithRSAEncryption
         a6:fe:f1:30:22:08:50:3e:cb:c5:19:cd:bf:e8:02:fe:0e:06:
         05:96:02:1f:bf:ea:b8:62:dd:d7:f5:3c:b6:02:02:5e:14:8e:
         8a:bc:26:88:87:84:25:eb:26:52:a9:99:e5:a5:bf:b2:dd:60:
         a0:5a:e9:f1:a2:db:fe:06:2e:4b:94:01:31:e0:3e:c6:ad:ac:
         51:f1:83:55:f1:a8:11:17:b9:54:fd:c5:51:55:44:41:c3:eb:
         02:29:8c:c1:a4:1d:6c:b0:d0:dd:e3:d5:87:d4:2f:12:c4:0c:
         57:77:c1:fa:a7:4a:80:ff:32:70:73:32:9b:ed:3a:df:66:65:
         37:f5:86:88:01:4c:76:8c:03:03:fc:1a:b6:c5:28:e8:e4:2a:
         1d:f6:9e:35:47:20:4f:ed:fd:4f:a1:78:c4:12:e0:86:86:b6:
         91:74:54:22:22:ac:69:21:e3:d5:3b:77:0f:16:09:ea:91:18:
         d3:11:e4:6c:2a:42:c5:68:8e:3f:04:41:8c:09:4e:0c:93:30:
         84:6f:f0:ae:b3:97:aa:7d:b9:9d:ba:e2:6c:f5:a6:3b:08:cf:
         47:90:c2:98:0d:28:7b:13:59:0c:4b:df:5f:64:b0:9b:70:c3:
         0e:6c:79:5a:c9:a8:7e:7f:62:27:15:b5:7d:4f:9d:7d:b4:80:
         63:a5:76:92
-----BEGIN CERTIFICATE-----
MIIDVzCCAj+gAwIBAgIQL8q89eRmKl/HWQPkaP9AVTANBgkqhkiG9w0BAQsFADAZ
MRcwFQYDVQQDDA5jYS5hemllbmRhLm5ldDAeFw0yMzA4MTYxNTA2MTFaFw0yNjA3
MzExNTA2MTFaMA4xDDAKBgNVBAMMA3BjNTCCASIwDQYJKoZIhvcNAQEBBQADggEP
ADCCAQoCggEBAM/eyGj5zIRT0GdzWTohrTYKabuOQZ6aLTtTtky0fdr60o9mwJIb
I6MJxvpd72yS29T+oC8e2wWz6h8JQw74HNpbmO2tg8EaU49ZkoY/VBQpbdcMuSrA
H9xhnv0FHdSDIgTM/+pFZEoGrDqydroWbr9328Hvgqq7T0R0F9PxBenOgEVY8JsS
iV1QihCNdZFhgcbu20Cs6Ay/JITo+FJqDFtzUvyfX01hzT4/sLIRPFeuKyrAC0W0
iixYv7ch5ye/+ir5JoHFwv8Kdhse/KopkEVpGV3/ahT3cCCLVzmxHaKaRHZnBSvu
7fGskoTV0jASld/CRT84nZFb1Alh4/UhKr0CAwEAAaOBpTCBojAJBgNVHRMEAjAA
MB0GA1UdDgQWBBRhkTOfUdLKMmYKFzxs+e84Tp6p7DBUBgNVHSMETTBLgBS2j/vw
se+Z5uLqfRZtMvOdUGsSFqEdpBswGTEXMBUGA1UEAwwOY2EuYXppZW5kYS5uZXSC
FGrDQt9F1KjzhzyPb0zuvIyEg4MmMBMGA1UdJQQMMAoGCCsGAQUFBwMCMAsGA1Ud
DwQEAwIHgDANBgkqhkiG9w0BAQsFAAOCAQEApv7xMCIIUD7LxRnNv+gC/g4GBZYC
H7/quGLd1/U8tgICXhSOirwmiIeEJesmUqmZ5aW/st1goFrp8aLb/gYuS5QBMeA+
xq2sUfGDVfGoERe5VP3FUVVEQcPrAimMwaQdbLDQ3ePVh9QvEsQMV3fB+qdKgP8y
cHMym+0632ZlN/WGiAFMdowDA/watsUo6OQqHfaeNUcgT+39T6F4xBLghoa2kXRU
IiKsaSHj1Tt3DxYJ6pEY0xHkbCpCxWiOPwRBjAlODJMwhG/wrrOXqn25nbribPWm
OwjPR5DCmA0oexNZDEvfX2Swm3DDDmx5Wsmofn9iJxW1fU+dfbSAY6V2kg==
-----END CERTIFICATE-----
